; Function Attrs: inlinehint nofree norecurse nosync nounwind memory(argmem: readwrite) uwtable
define internal fastcc i32 @Abc_TtMinBase(ptr noundef %0, ptr noundef %1, i32 noundef %2, i32 noundef %3) unnamed_addr #15 {
  %5 = icmp sgt i32 %2, 0
  br i1 %5, label %.lr.ph, label %._crit_edge

.lr.ph:                                           ; preds = %4
  %6 = icmp slt i32 %3, 7
  %7 = add i32 %3, -6
  %8 = shl nuw i32 1, %7
  %9 = sext i32 %8 to i64
  %10 = getelementptr inbounds i64, ptr %0, i64 %9
  %smax56.i = tail call i32 @llvm.smax.i32(i32 %8, i32 1)
  %wide.trip.count57.i = zext nneg i32 %smax56.i to i64
  %.not26 = icmp eq ptr %1, null
  br i1 %6, label %.lr.ph.split.us, label %.lr.ph.split

.lr.ph.split.us:                                  ; preds = %.lr.ph
  %wide.trip.count82 = zext nneg i32 %2 to i64
  br i1 %.not26, label %Abc_TtHasVar.exit.us.us, label %Abc_TtHasVar.exit.us

Abc_TtHasVar.exit.us.us:                          ; preds = %.lr.ph.split.us, %Abc_TtHasVar.exit.thread.us.us
  %indvars.iv79 = phi i64 [ %indvars.iv.next80, %Abc_TtHasVar.exit.thread.us.us ], [ 0, %.lr.ph.split.us ]
  %.038.us.us = phi i32 [ %.1.us.us, %Abc_TtHasVar.exit.thread.us.us ], [ 0, %.lr.ph.split.us ]
  %11 = load i64, ptr %0, align 8, !tbaa !70
  %12 = trunc nuw nsw i64 %indvars.iv79 to i32
  %13 = shl nuw i32 1, %12
  %14 = zext nneg i32 %13 to i64
  %15 = lshr i64 %11, %14
  %16 = getelementptr inbounds nuw [6 x i64], ptr @s_Truths6Neg, i64 0, i64 %indvars.iv79
  %17 = load i64, ptr %16, align 8, !tbaa !70
  %18 = xor i64 %15, %11
  %19 = and i64 %18, %17
  %.not33.us.us = icmp eq i64 %19, 0
  br i1 %.not33.us.us, label %Abc_TtHasVar.exit.thread.us.us, label %Abc_TtHasVar.exit.thread30.us.us

Abc_TtHasVar.exit.thread30.us.us:                 ; preds = %Abc_TtHasVar.exit.us.us
  %20 = sext i32 %.038.us.us to i64
  %21 = icmp sgt i64 %indvars.iv79, %20
  br i1 %21, label %22, label %23

22:                                               ; preds = %Abc_TtHasVar.exit.thread30.us.us
  tail call fastcc void @Abc_TtSwapVars(ptr noundef nonnull %0, i32 noundef %3, i32 noundef %.038.us.us, i32 noundef %12)
  br label %23

23:                                               ; preds = %22, %Abc_TtHasVar.exit.thread30.us.us
  %24 = add nsw i32 %.038.us.us, 1
  br label %Abc_TtHasVar.exit.thread.us.us

Abc_TtHasVar.exit.thread.us.us:                   ; preds = %23, %Abc_TtHasVar.exit.us.us
  %.1.us.us = phi i32 [ %24, %23 ], [ %.038.us.us, %Abc_TtHasVar.exit.us.us ]
  %indvars.iv.next80 = add nuw nsw i64 %indvars.iv79, 1
  %exitcond83.not = icmp eq i64 %indvars.iv.next80, %wide.trip.count82
  br i1 %exitcond83.not, label %._crit_edge, label %Abc_TtHasVar.exit.us.us, !llvm.loop !225

Abc_TtHasVar.exit.us:                             ; preds = %.lr.ph.split.us, %Abc_TtHasVar.exit.thread.us
  %indvars.iv74 = phi i64 [ %indvars.iv.next75, %Abc_TtHasVar.exit.thread.us ], [ 0, %.lr.ph.split.us ]
  %.038.us = phi i32 [ %.1.us, %Abc_TtHasVar.exit.thread.us ], [ 0, %.lr.ph.split.us ]
  %25 = load i64, ptr %0, align 8, !tbaa !70
  %26 = trunc nuw nsw i64 %indvars.iv74 to i32
  %27 = shl nuw i32 1, %26
  %28 = zext nneg i32 %27 to i64
  %29 = lshr i64 %25, %28
  %30 = getelementptr inbounds nuw [6 x i64], ptr @s_Truths6Neg, i64 0, i64 %indvars.iv74
  %31 = load i64, ptr %30, align 8, !tbaa !70
  %32 = xor i64 %29, %25
  %33 = and i64 %32, %31
  %.not33.us = icmp eq i64 %33, 0
  br i1 %.not33.us, label %Abc_TtHasVar.exit.thread.us, label %Abc_TtHasVar.exit.thread30.us

Abc_TtHasVar.exit.thread30.us:                    ; preds = %Abc_TtHasVar.exit.us
  %34 = sext i32 %.038.us to i64
  %35 = icmp sgt i64 %indvars.iv74, %34
  br i1 %35, label %36, label %40

36:                                               ; preds = %Abc_TtHasVar.exit.thread30.us
  %37 = getelementptr inbounds nuw i32, ptr %1, i64 %indvars.iv74
  %38 = load i32, ptr %37, align 4, !tbaa !37
  %39 = getelementptr inbounds i32, ptr %1, i64 %34
  store i32 %38, ptr %39, align 4, !tbaa !37
  tail call fastcc void @Abc_TtSwapVars(ptr noundef nonnull %0, i32 noundef %3, i32 noundef %.038.us, i32 noundef %26)
  br label %40

40:                                               ; preds = %36, %Abc_TtHasVar.exit.thread30.us
  %41 = add nsw i32 %.038.us, 1
  br label %Abc_TtHasVar.exit.thread.us

Abc_TtHasVar.exit.thread.us:                      ; preds = %40, %Abc_TtHasVar.exit.us
  %.1.us = phi i32 [ %41, %40 ], [ %.038.us, %Abc_TtHasVar.exit.us ]
  %indvars.iv.next75 = add nuw nsw i64 %indvars.iv74, 1
  %exitcond78.not = icmp eq i64 %indvars.iv.next75, %wide.trip.count82
  br i1 %exitcond78.not, label %._crit_edge, label %Abc_TtHasVar.exit.us, !llvm.loop !225

.lr.ph.split:                                     ; preds = %.lr.ph
  %.not48.i = icmp eq i32 %7, 31
  br i1 %.not48.i, label %._crit_edge, label %.lr.ph.split.split.split.preheader

.lr.ph.split.split.split.preheader:               ; preds = %.lr.ph.split
  %wide.trip.count = zext nneg i32 %2 to i64
  br label %.lr.ph.split.split.split

.lr.ph.split.split.split:                         ; preds = %.lr.ph.split.split.split.preheader, %Abc_TtHasVar.exit.thread
  %indvars.iv = phi i64 [ 0, %.lr.ph.split.split.split.preheader ], [ %indvars.iv.next, %Abc_TtHasVar.exit.thread ]
  %.038 = phi i32 [ 0, %.lr.ph.split.split.split.preheader ], [ %.1, %Abc_TtHasVar.exit.thread ]
  %42 = icmp samesign ult i64 %indvars.iv, 6
  br i1 %42, label %.lr.ph.i, label %.preheader.lr.ph.i

.lr.ph.i:                                         ; preds = %.lr.ph.split.split.split
  %43 = trunc nuw nsw i64 %indvars.iv to i32
  %44 = shl nuw nsw i32 1, %43
  %45 = zext nneg i32 %44 to i64
  %46 = getelementptr inbounds nuw [6 x i64], ptr @s_Truths6Neg, i64 0, i64 %indvars.iv
  %47 = load i64, ptr %46, align 8, !tbaa !70
  br label %49

48:                                               ; preds = %49
  %indvars.iv.next54.i = add nuw nsw i64 %indvars.iv53.i, 1
  %exitcond58.not.i = icmp eq i64 %indvars.iv.next54.i, %wide.trip.count57.i
  br i1 %exitcond58.not.i, label %Abc_TtHasVar.exit.thread, label %49, !llvm.loop !224

49:                                               ; preds = %48, %.lr.ph.i
  %indvars.iv53.i = phi i64 [ 0, %.lr.ph.i ], [ %indvars.iv.next54.i, %48 ]
  %50 = getelementptr inbounds nuw i64, ptr %0, i64 %indvars.iv53.i
  %51 = load i64, ptr %50, align 8, !tbaa !70
  %52 = lshr i64 %51, %45
  %53 = xor i64 %52, %51
  %54 = and i64 %53, %47
  %.not39.i = icmp eq i64 %54, 0
  br i1 %.not39.i, label %48, label %Abc_TtHasVar.exit.thread30

.preheader.lr.ph.i:                               ; preds = %.lr.ph.split.split.split
  %55 = add nsw i64 %indvars.iv, -6
  %56 = icmp eq i64 %55, 31
  %57 = trunc nsw i64 %55 to i32
  %58 = shl i32 2, %57
  %59 = sext i32 %58 to i64
  br i1 %56, label %Abc_TtHasVar.exit.thread, label %.preheader.us.preheader.i

.preheader.us.preheader.i:                        ; preds = %.preheader.lr.ph.i
  %60 = shl nuw i32 1, %57
  %61 = sext i32 %60 to i64
  %smax.i = tail call i32 @llvm.smax.i32(i32 %60, i32 1)
  %wide.trip.count.i = zext nneg i32 %smax.i to i64
  br label %.preheader.us.i

.preheader.us.i:                                  ; preds = %._crit_edge.us.i, %.preheader.us.preheader.i
  %.03143.us.i = phi ptr [ %67, %._crit_edge.us.i ], [ %0, %.preheader.us.preheader.i ]
  %invariant.gep.i = getelementptr i64, ptr %.03143.us.i, i64 %61
  br label %63

62:                                               ; preds = %63
  %indvars.iv.next.i = add nuw nsw i64 %indvars.iv.i, 1
  %exitcond.not.i = icmp eq i64 %indvars.iv.next.i, %wide.trip.count.i
  br i1 %exitcond.not.i, label %._crit_edge.us.i, label %63, !llvm.loop !222

63:                                               ; preds = %62, %.preheader.us.i
  %indvars.iv.i = phi i64 [ 0, %.preheader.us.i ], [ %indvars.iv.next.i, %62 ]
  %64 = getelementptr inbounds nuw i64, ptr %.03143.us.i, i64 %indvars.iv.i
  %65 = load i64, ptr %64, align 8, !tbaa !70
  %gep.i = getelementptr i64, ptr %invariant.gep.i, i64 %indvars.iv.i
  %66 = load i64, ptr %gep.i, align 8, !tbaa !70
  %.not.us.i = icmp eq i64 %65, %66
  br i1 %.not.us.i, label %62, label %Abc_TtHasVar.exit.thread30

._crit_edge.us.i:                                 ; preds = %62
  %67 = getelementptr inbounds i64, ptr %.03143.us.i, i64 %59
  %68 = icmp ult ptr %67, %10
  br i1 %68, label %.preheader.us.i, label %Abc_TtHasVar.exit.thread, !llvm.loop !223

Abc_TtHasVar.exit.thread30:                       ; preds = %49, %63
  %69 = sext i32 %.038 to i64
  %70 = icmp sgt i64 %indvars.iv, %69
  br i1 %70, label %71, label %78

71:                                               ; preds = %Abc_TtHasVar.exit.thread30
  br i1 %.not26, label %76, label %72

72:                                               ; preds = %71
  %73 = getelementptr inbounds nuw i32, ptr %1, i64 %indvars.iv
  %74 = load i32, ptr %73, align 4, !tbaa !37
  %75 = getelementptr inbounds i32, ptr %1, i64 %69
  store i32 %74, ptr %75, align 4, !tbaa !37
  br label %76

76:                                               ; preds = %72, %71
  %77 = trunc nuw nsw i64 %indvars.iv to i32
  tail call fastcc void @Abc_TtSwapVars(ptr noundef %0, i32 noundef %3, i32 noundef %.038, i32 noundef %77)
  br label %78

78:                                               ; preds = %76, %Abc_TtHasVar.exit.thread30
  %79 = add nsw i32 %.038, 1
  br label %Abc_TtHasVar.exit.thread

Abc_TtHasVar.exit.thread:                         ; preds = %._crit_edge.us.i, %48, %.preheader.lr.ph.i, %78
  %.1 = phi i32 [ %79, %78 ], [ %.038, %.preheader.lr.ph.i ], [ %.038, %48 ], [ %.038, %._crit_edge.us.i ]
  %indvars.iv.next = add nuw nsw i64 %indvars.iv, 1
  %exitcond.not = icmp eq i64 %indvars.iv.next, %wide.trip.count
  br i1 %exitcond.not, label %._crit_edge, label %.lr.ph.split.split.split, !llvm.loop !225

._crit_edge:                                      ; preds = %Abc_TtHasVar.exit.thread, %Abc_TtHasVar.exit.thread.us, %Abc_TtHasVar.exit.thread.us.us, %.lr.ph.split, %4
  %.0.lcssa = phi i32 [ 0, %4 ], [ 0, %.lr.ph.split ], [ %.1.us.us, %Abc_TtHasVar.exit.thread.us.us ], [ %.1.us, %Abc_TtHasVar.exit.thread.us ], [ %.1, %Abc_TtHasVar.exit.thread ]
  ret i32 %.0.lcssa
}